target datalayout = "e-m:e-p270:32:32-p271:32:32-p272:64:64-i64:64-i128:128-f80:128-n8:16:32:64-S128"
target triple = "x86_64-pc-linux-gnu"

%struct.PLATFORM_hid_device_ = type { i32, i32, i32, ptr, ptr }

@.str.13 = private unnamed_addr constant [19 x i8] c"ioctl (GINPUT): %s\00", align 1
@.str.31 = private unnamed_addr constant [3 x i8] c"%s\00", align 1

; Function Attrs: nounwind uwtable
define internal void @register_error_str(ptr noundef %0, ptr noundef %1) #0 {
  %3 = alloca ptr, align 8
  %4 = alloca ptr, align 8
  store ptr %0, ptr %3, align 8
  store ptr %1, ptr %4, align 8
  %5 = load ptr, ptr %3, align 8
  %6 = load ptr, ptr %5, align 8
  call void @free(ptr noundef %6) #10
  %7 = load ptr, ptr %4, align 8
  %8 = icmp ne ptr %7, null
  br i1 %8, label %9, label %12

9:                                                ; preds = %2
  %10 = load ptr, ptr %4, align 8
  %11 = call zeroext i1 (ptr, ...) @SDL_SetError_REAL(ptr noundef @.str.31, ptr noundef %10)
  br label %14

12:                                               ; preds = %2
  %13 = call zeroext i1 @SDL_ClearError_REAL()
  br label %14

14:                                               ; preds = %12, %9
  ret void
}

; Function Attrs: nounwind uwtable
define internal void @register_device_error(ptr noundef %0, ptr noundef %1) #0 {
  %3 = alloca ptr, align 8
  %4 = alloca ptr, align 8
  store ptr %0, ptr %3, align 8
  store ptr %1, ptr %4, align 8
  %5 = load ptr, ptr %3, align 8
  %6 = getelementptr inbounds nuw %struct.PLATFORM_hid_device_, ptr %5, i32 0, i32 3
  %7 = load ptr, ptr %4, align 8
  call void @register_error_str(ptr noundef %6, ptr noundef %7)
  ret void
}

; Function Attrs: nounwind uwtable
define hidden i32 @PLATFORM_hid_get_input_report(ptr noundef %0, ptr noundef %1, i64 noundef %2) #0 {
  %4 = alloca ptr, align 8
  %5 = alloca ptr, align 8
  %6 = alloca i64, align 8
  %7 = alloca i32, align 4
  store ptr %0, ptr %4, align 8
  store ptr %1, ptr %5, align 8
  store i64 %2, ptr %6, align 8
  call void @llvm.lifetime.start.p0(i64 4, ptr %7) #10
  %8 = load ptr, ptr %4, align 8
  call void @register_device_error(ptr noundef %8, ptr noundef null)
  %9 = load ptr, ptr %4, align 8
  %10 = getelementptr inbounds nuw %struct.PLATFORM_hid_device_, ptr %9, i32 0, i32 0
  %11 = load i32, ptr %10, align 8
  %12 = load i64, ptr %6, align 8
  %13 = shl i64 %12, 16
  %14 = or i64 3221243914, %13
  %15 = load ptr, ptr %5, align 8
  %16 = call i32 (i32, i64, ...) @ioctl(i32 noundef %11, i64 noundef %14, ptr noundef %15) #10
  store i32 %16, ptr %7, align 4
  %17 = load i32, ptr %7, align 4
  %18 = icmp slt i32 %17, 0
  br i1 %18, label %19, label %24

19:                                               ; preds = %3
  %20 = load ptr, ptr %4, align 8
  %21 = call ptr @__errno_location() #13
  %22 = load i32, ptr %21, align 4
  %23 = call ptr @strerror(i32 noundef %22) #10
  call void (ptr, ptr, ...) @register_device_error_format(ptr noundef %20, ptr noundef @.str.13, ptr noundef %23)
  br label %24

24:                                               ; preds = %19, %3
  %25 = load i32, ptr %7, align 4
  call void @llvm.lifetime.end.p0(i64 4, ptr %7) #10
  ret i32 %25
}