; Function Attrs: nounwind uwtable
define hidden i32 @PLATFORM_hid_get_input_report(ptr noundef readonly captures(none) %0, ptr noundef %1, i64 noundef %2) #1 {
  %4 = getelementptr i8, ptr %0, i64 16
  %.val = load ptr, ptr %4, align 8
  tail call void @free(ptr noundef %.val) #22
  %5 = tail call zeroext i1 @SDL_ClearError_REAL() #22
  %6 = load i32, ptr %0, align 8
  %7 = shl i64 %2, 16
  %8 = or i64 %7, 3221243914
  %9 = tail call i32 (i32, i64, ...) @ioctl(i32 noundef %6, i64 noundef %8, ptr noundef %1) #22
  %10 = icmp slt i32 %9, 0
  br i1 %10, label %11, label %15

11:                                               ; preds = %3
  %12 = tail call ptr @__errno_location() #25
  %13 = load i32, ptr %12, align 4
  %14 = tail call ptr @strerror(i32 noundef %13) #22
  tail call void (ptr, ptr, ...) @register_device_error_format(ptr noundef nonnull %0, ptr noundef nonnull @.str.13, ptr noundef %14)
  br label %15

15:                                               ; preds = %11, %3
  ret i32 %9
}